ARM GAS  /var/folders/l3/4y5292px21b4835bsnjwqc7w009kq1/T//ccqMsXio.s 			page 1


   1              		.cpu cortex-m3
   2              		.eabi_attribute 20, 1
   3              		.eabi_attribute 21, 1
   4              		.eabi_attribute 23, 3
   5              		.eabi_attribute 24, 1
   6              		.eabi_attribute 25, 1
   7              		.eabi_attribute 26, 1
   8              		.eabi_attribute 30, 1
   9              		.eabi_attribute 34, 1
  10              		.eabi_attribute 18, 4
  11              		.file	"main.cpp"
  12              		.text
  13              		.section	.text._Z10Callback01PKv,"ax",%progbits
  14              		.align	1
  15              		.global	_Z10Callback01PKv
  16              		.syntax unified
  17              		.thumb
  18              		.thumb_func
  19              		.fpu softvfp
  21              	_Z10Callback01PKv:
  22              		.fnstart
  23              	.LFB74:
  24              		@ args = 0, pretend = 0, frame = 0
  25              		@ frame_needed = 0, uses_anonymous_args = 0
  26              		@ link register save eliminated.
  27 0000 014B     		ldr	r3, .L2
  28 0002 0122     		movs	r2, #1
  29 0004 1A60     		str	r2, [r3]
  30 0006 7047     		bx	lr
  31              	.L3:
  32              		.align	2
  33              	.L2:
  34 0008 00000000 		.word	.LANCHOR0
  35              		.cantunwind
  36              		.fnend
  38              		.section	.text._ZL12MX_GPIO_Initv,"ax",%progbits
  39              		.align	1
  40              		.syntax unified
  41              		.thumb
  42              		.thumb_func
  43              		.fpu softvfp
  45              	_ZL12MX_GPIO_Initv:
  46              		.fnstart
  47              	.LFB71:
  48              		@ args = 0, pretend = 0, frame = 32
  49              		@ frame_needed = 0, uses_anonymous_args = 0
  50 0000 F0B5     		push	{r4, r5, r6, r7, lr}
  51              		.save {r4, r5, r6, r7, lr}
  52              		.pad #36
  53 0002 89B0     		sub	sp, sp, #36
  54 0004 0024     		movs	r4, #0
  55 0006 0494     		str	r4, [sp, #16]
  56 0008 0594     		str	r4, [sp, #20]
  57 000a 0694     		str	r4, [sp, #24]
  58 000c 0794     		str	r4, [sp, #28]
  59 000e 254B     		ldr	r3, .L6
  60 0010 9A69     		ldr	r2, [r3, #24]
ARM GAS  /var/folders/l3/4y5292px21b4835bsnjwqc7w009kq1/T//ccqMsXio.s 			page 2


  61 0012 42F01002 		orr	r2, r2, #16
  62 0016 9A61     		str	r2, [r3, #24]
  63 0018 9A69     		ldr	r2, [r3, #24]
  64 001a 02F01002 		and	r2, r2, #16
  65 001e 0092     		str	r2, [sp]
  66 0020 009A     		ldr	r2, [sp]
  67 0022 9A69     		ldr	r2, [r3, #24]
  68 0024 42F02002 		orr	r2, r2, #32
  69 0028 9A61     		str	r2, [r3, #24]
  70 002a 9A69     		ldr	r2, [r3, #24]
  71 002c 02F02002 		and	r2, r2, #32
  72 0030 0192     		str	r2, [sp, #4]
  73 0032 019A     		ldr	r2, [sp, #4]
  74 0034 9A69     		ldr	r2, [r3, #24]
  75 0036 42F00802 		orr	r2, r2, #8
  76 003a 9A61     		str	r2, [r3, #24]
  77 003c 9A69     		ldr	r2, [r3, #24]
  78 003e 02F00802 		and	r2, r2, #8
  79 0042 0292     		str	r2, [sp, #8]
  80 0044 029A     		ldr	r2, [sp, #8]
  81 0046 9A69     		ldr	r2, [r3, #24]
  82 0048 42F00402 		orr	r2, r2, #4
  83 004c 9A61     		str	r2, [r3, #24]
  84 004e 9B69     		ldr	r3, [r3, #24]
  85 0050 03F00403 		and	r3, r3, #4
  86 0054 0393     		str	r3, [sp, #12]
  87 0056 039B     		ldr	r3, [sp, #12]
  88 0058 134F     		ldr	r7, .L6+4
  89 005a 2246     		mov	r2, r4
  90 005c 4FF42051 		mov	r1, #10240
  91 0060 3846     		mov	r0, r7
  92 0062 FFF7FEFF 		bl	HAL_GPIO_WritePin
  93 0066 0225     		movs	r5, #2
  94 0068 0495     		str	r5, [sp, #16]
  95 006a 0594     		str	r4, [sp, #20]
  96 006c 0126     		movs	r6, #1
  97 006e 0696     		str	r6, [sp, #24]
  98 0070 04A9     		add	r1, sp, #16
  99 0072 0E48     		ldr	r0, .L6+8
 100 0074 FFF7FEFF 		bl	HAL_GPIO_Init
 101 0078 4FF40063 		mov	r3, #2048
 102 007c 0493     		str	r3, [sp, #16]
 103 007e 0596     		str	r6, [sp, #20]
 104 0080 0694     		str	r4, [sp, #24]
 105 0082 0795     		str	r5, [sp, #28]
 106 0084 04A9     		add	r1, sp, #16
 107 0086 3846     		mov	r0, r7
 108 0088 FFF7FEFF 		bl	HAL_GPIO_Init
 109 008c 4FF40053 		mov	r3, #8192
 110 0090 0493     		str	r3, [sp, #16]
 111 0092 0596     		str	r6, [sp, #20]
 112 0094 0694     		str	r4, [sp, #24]
 113 0096 0795     		str	r5, [sp, #28]
 114 0098 04A9     		add	r1, sp, #16
 115 009a 0548     		ldr	r0, .L6+12
 116 009c FFF7FEFF 		bl	HAL_GPIO_Init
 117 00a0 09B0     		add	sp, sp, #36
ARM GAS  /var/folders/l3/4y5292px21b4835bsnjwqc7w009kq1/T//ccqMsXio.s 			page 3


 118              		@ sp needed
 119 00a2 F0BD     		pop	{r4, r5, r6, r7, pc}
 120              	.L7:
 121              		.align	2
 122              	.L6:
 123 00a4 00100240 		.word	1073876992
 124 00a8 000C0140 		.word	1073810432
 125 00ac 00080140 		.word	1073809408
 126 00b0 00100140 		.word	1073811456
 127              		.fnend
 129              		.section	.text._Z18task1EntryFunctionPKv,"ax",%progbits
 130              		.align	1
 131              		.global	_Z18task1EntryFunctionPKv
 132              		.syntax unified
 133              		.thumb
 134              		.thumb_func
 135              		.fpu softvfp
 137              	_Z18task1EntryFunctionPKv:
 138              		.fnstart
 139              	.LFB72:
 140              		@ args = 0, pretend = 0, frame = 0
 141              		@ frame_needed = 0, uses_anonymous_args = 0
 142 0000 08B5     		push	{r3, lr}
 143              		.save {r3, lr}
 144              	.L9:
 145 0002 094B     		ldr	r3, .L12
 146 0004 1B68     		ldr	r3, [r3]
 147 0006 012B     		cmp	r3, #1
 148 0008 FBD1     		bne	.L9
 149 000a 074B     		ldr	r3, .L12
 150 000c 0022     		movs	r2, #0
 151 000e 1A60     		str	r2, [r3]
 152 0010 4FF40061 		mov	r1, #2048
 153 0014 0548     		ldr	r0, .L12+4
 154 0016 FFF7FEFF 		bl	HAL_GPIO_TogglePin
 155 001a 4FF47A71 		mov	r1, #1000
 156 001e 044B     		ldr	r3, .L12+8
 157 0020 1868     		ldr	r0, [r3]
 158 0022 FFF7FEFF 		bl	osTimerStart
 159 0026 ECE7     		b	.L9
 160              	.L13:
 161              		.align	2
 162              	.L12:
 163 0028 00000000 		.word	.LANCHOR0
 164 002c 000C0140 		.word	1073810432
 165 0030 00000000 		.word	.LANCHOR1
 166              		.fnend
 168              		.section	.text._Z18task2EntryFunctionPKv,"ax",%progbits
 169              		.align	1
 170              		.global	_Z18task2EntryFunctionPKv
 171              		.syntax unified
 172              		.thumb
 173              		.thumb_func
 174              		.fpu softvfp
 176              	_Z18task2EntryFunctionPKv:
 177              		.fnstart
 178              	.LFB73:
ARM GAS  /var/folders/l3/4y5292px21b4835bsnjwqc7w009kq1/T//ccqMsXio.s 			page 4


 179              		@ args = 0, pretend = 0, frame = 0
 180              		@ frame_needed = 0, uses_anonymous_args = 0
 181 0000 08B5     		push	{r3, lr}
 182              		.save {r3, lr}
 183              	.L15:
 184 0002 0221     		movs	r1, #2
 185 0004 0A48     		ldr	r0, .L19
 186 0006 FFF7FEFF 		bl	HAL_GPIO_ReadPin
 187 000a 0028     		cmp	r0, #0
 188 000c F9D1     		bne	.L15
 189              	.L16:
 190 000e 0221     		movs	r1, #2
 191 0010 0748     		ldr	r0, .L19
 192 0012 FFF7FEFF 		bl	HAL_GPIO_ReadPin
 193 0016 0028     		cmp	r0, #0
 194 0018 F9D0     		beq	.L16
 195 001a 4FF4C870 		mov	r0, #400
 196 001e FFF7FEFF 		bl	osDelay
 197 0022 4FF40051 		mov	r1, #8192
 198 0026 0348     		ldr	r0, .L19+4
 199 0028 FFF7FEFF 		bl	HAL_GPIO_TogglePin
 200 002c E9E7     		b	.L15
 201              	.L20:
 202 002e 00BF     		.align	2
 203              	.L19:
 204 0030 00080140 		.word	1073809408
 205 0034 00100140 		.word	1073811456
 206              		.fnend
 208              		.section	.text._Z18SystemClock_Configv,"ax",%progbits
 209              		.align	1
 210              		.global	_Z18SystemClock_Configv
 211              		.syntax unified
 212              		.thumb
 213              		.thumb_func
 214              		.fpu softvfp
 216              	_Z18SystemClock_Configv:
 217              		.fnstart
 218              	.LFB70:
 219              		@ args = 0, pretend = 0, frame = 64
 220              		@ frame_needed = 0, uses_anonymous_args = 0
 221 0000 30B5     		push	{r4, r5, lr}
 222              		.save {r4, r5, lr}
 223              		.pad #68
 224 0002 91B0     		sub	sp, sp, #68
 225 0004 0024     		movs	r4, #0
 226 0006 0894     		str	r4, [sp, #32]
 227 0008 0994     		str	r4, [sp, #36]
 228 000a 0B94     		str	r4, [sp, #44]
 229 000c 0C94     		str	r4, [sp, #48]
 230 000e 0194     		str	r4, [sp, #4]
 231 0010 0294     		str	r4, [sp, #8]
 232 0012 0394     		str	r4, [sp, #12]
 233 0014 0494     		str	r4, [sp, #16]
 234 0016 0594     		str	r4, [sp, #20]
 235 0018 0122     		movs	r2, #1
 236 001a 0692     		str	r2, [sp, #24]
 237 001c 4FF48033 		mov	r3, #65536
ARM GAS  /var/folders/l3/4y5292px21b4835bsnjwqc7w009kq1/T//ccqMsXio.s 			page 5


 238 0020 0793     		str	r3, [sp, #28]
 239 0022 0A92     		str	r2, [sp, #40]
 240 0024 0225     		movs	r5, #2
 241 0026 0D95     		str	r5, [sp, #52]
 242 0028 0E93     		str	r3, [sp, #56]
 243 002a 4FF4E013 		mov	r3, #1835008
 244 002e 0F93     		str	r3, [sp, #60]
 245 0030 06A8     		add	r0, sp, #24
 246 0032 FFF7FEFF 		bl	HAL_RCC_OscConfig
 247 0036 0F23     		movs	r3, #15
 248 0038 0193     		str	r3, [sp, #4]
 249 003a 0295     		str	r5, [sp, #8]
 250 003c 0394     		str	r4, [sp, #12]
 251 003e 4FF48063 		mov	r3, #1024
 252 0042 0493     		str	r3, [sp, #16]
 253 0044 0594     		str	r4, [sp, #20]
 254 0046 2946     		mov	r1, r5
 255 0048 01A8     		add	r0, sp, #4
 256 004a FFF7FEFF 		bl	HAL_RCC_ClockConfig
 257 004e 11B0     		add	sp, sp, #68
 258              		@ sp needed
 259 0050 30BD     		pop	{r4, r5, pc}
 260              		.fnend
 262              		.section	.text.main,"ax",%progbits
 263              		.align	1
 264              		.global	main
 265              		.syntax unified
 266              		.thumb
 267              		.thumb_func
 268              		.fpu softvfp
 270              	main:
 271              		.fnstart
 272              	.LFB69:
 273              		@ args = 0, pretend = 0, frame = 48
 274              		@ frame_needed = 0, uses_anonymous_args = 0
 275 0000 70B5     		push	{r4, r5, r6, lr}
 276              		.save {r4, r5, r6, lr}
 277              		.pad #48
 278 0002 8CB0     		sub	sp, sp, #48
 279 0004 FFF7FEFF 		bl	HAL_Init
 280 0008 FFF7FEFF 		bl	_Z18SystemClock_Configv
 281 000c FFF7FEFF 		bl	_ZL12MX_GPIO_Initv
 282 0010 0CA8     		add	r0, sp, #48
 283 0012 124B     		ldr	r3, .L26
 284 0014 40F8043D 		str	r3, [r0, #-4]!
 285 0018 0022     		movs	r2, #0
 286 001a 1146     		mov	r1, r2
 287 001c FFF7FEFF 		bl	osTimerCreate
 288 0020 0F4B     		ldr	r3, .L26+4
 289 0022 1860     		str	r0, [r3]
 290 0024 0F4C     		ldr	r4, .L26+8
 291 0026 06AD     		add	r5, sp, #24
 292 0028 2646     		mov	r6, r4
 293 002a 0FCE     		ldmia	r6!, {r0, r1, r2, r3}
 294 002c 0FC5     		stmia	r5!, {r0, r1, r2, r3}
 295 002e 3368     		ldr	r3, [r6]
 296 0030 2B60     		str	r3, [r5]
ARM GAS  /var/folders/l3/4y5292px21b4835bsnjwqc7w009kq1/T//ccqMsXio.s 			page 6


 297 0032 0021     		movs	r1, #0
 298 0034 06A8     		add	r0, sp, #24
 299 0036 FFF7FEFF 		bl	osThreadCreate
 300 003a 0B4B     		ldr	r3, .L26+12
 301 003c 1860     		str	r0, [r3]
 302 003e 01AD     		add	r5, sp, #4
 303 0040 1434     		adds	r4, r4, #20
 304 0042 0FCC     		ldmia	r4!, {r0, r1, r2, r3}
 305 0044 0FC5     		stmia	r5!, {r0, r1, r2, r3}
 306 0046 2368     		ldr	r3, [r4]
 307 0048 2B60     		str	r3, [r5]
 308 004a 0021     		movs	r1, #0
 309 004c 01A8     		add	r0, sp, #4
 310 004e FFF7FEFF 		bl	osThreadCreate
 311 0052 064B     		ldr	r3, .L26+16
 312 0054 1860     		str	r0, [r3]
 313 0056 FFF7FEFF 		bl	osKernelStart
 314              	.L24:
 315 005a FEE7     		b	.L24
 316              	.L27:
 317              		.align	2
 318              	.L26:
 319 005c 00000000 		.word	_Z10Callback01PKv
 320 0060 00000000 		.word	.LANCHOR1
 321 0064 00000000 		.word	.LANCHOR2
 322 0068 00000000 		.word	.LANCHOR3
 323 006c 00000000 		.word	.LANCHOR4
 324              		.fnend
 326              		.section	.text.HAL_TIM_PeriodElapsedCallback,"ax",%progbits
 327              		.align	1
 328              		.global	HAL_TIM_PeriodElapsedCallback
 329              		.syntax unified
 330              		.thumb
 331              		.thumb_func
 332              		.fpu softvfp
 334              	HAL_TIM_PeriodElapsedCallback:
 335              		.fnstart
 336              	.LFB75:
 337              		@ args = 0, pretend = 0, frame = 0
 338              		@ frame_needed = 0, uses_anonymous_args = 0
 339 0000 08B5     		push	{r3, lr}
 340              		.save {r3, lr}
 341 0002 0268     		ldr	r2, [r0]
 342 0004 034B     		ldr	r3, .L32
 343 0006 9A42     		cmp	r2, r3
 344 0008 00D0     		beq	.L31
 345              	.L28:
 346 000a 08BD     		pop	{r3, pc}
 347              	.L31:
 348 000c FFF7FEFF 		bl	HAL_IncTick
 349 0010 FBE7     		b	.L28
 350              	.L33:
 351 0012 00BF     		.align	2
 352              	.L32:
 353 0014 002C0140 		.word	1073818624
 354              		.fnend
 356              		.section	.text.Error_Handler,"ax",%progbits
ARM GAS  /var/folders/l3/4y5292px21b4835bsnjwqc7w009kq1/T//ccqMsXio.s 			page 7


 357              		.align	1
 358              		.global	Error_Handler
 359              		.syntax unified
 360              		.thumb
 361              		.thumb_func
 362              		.fpu softvfp
 364              	Error_Handler:
 365              		.fnstart
 366              	.LFB76:
 367              		@ args = 0, pretend = 0, frame = 0
 368              		@ frame_needed = 0, uses_anonymous_args = 0
 369              		@ link register save eliminated.
 370 0000 7047     		bx	lr
 371              		.cantunwind
 372              		.fnend
 374              		.global	timerFlag
 375              		.global	myTimer01Handle
 376              		.global	task2Handle
 377              		.global	task1Handle
 378              		.section	.rodata
 379              		.align	2
 380              		.set	.LANCHOR2,. + 0
 381              	.LC4:
 382 0000 08000000 		.word	.LC0
 383 0004 00000000 		.word	_Z18task1EntryFunctionPKv
 384 0008 0000     		.short	0
 385 000a 0000     		.space	2
 386 000c 00000000 		.word	0
 387 0010 80000000 		.word	128
 388              	.LC5:
 389 0014 00000000 		.word	.LC2
 390 0018 00000000 		.word	_Z18task2EntryFunctionPKv
 391 001c 0000     		.short	0
 392 001e 0000     		.space	2
 393 0020 00000000 		.word	0
 394 0024 80000000 		.word	128
 395              		.section	.bss.myTimer01Handle,"aw",%nobits
 396              		.align	2
 397              		.set	.LANCHOR1,. + 0
 400              	myTimer01Handle:
 401 0000 00000000 		.space	4
 402              		.section	.bss.task1Handle,"aw",%nobits
 403              		.align	2
 404              		.set	.LANCHOR3,. + 0
 407              	task1Handle:
 408 0000 00000000 		.space	4
 409              		.section	.bss.task2Handle,"aw",%nobits
 410              		.align	2
 411              		.set	.LANCHOR4,. + 0
 414              	task2Handle:
 415 0000 00000000 		.space	4
 416              		.section	.data.timerFlag,"aw",%progbits
 417              		.align	2
 418              		.set	.LANCHOR0,. + 0
 421              	timerFlag:
 422 0000 01000000 		.word	1
 423              		.section	.rodata.str1.4,"aMS",%progbits,1
ARM GAS  /var/folders/l3/4y5292px21b4835bsnjwqc7w009kq1/T//ccqMsXio.s 			page 8


 424              		.align	2
 425              	.LC2:
 426 0000 7461736B 		.ascii	"task2\000"
 426      3200
 427 0006 0000     		.space	2
 428              	.LC0:
 429 0008 7461736B 		.ascii	"task1\000"
 429      3100
 430              		.ident	"GCC: (GNU Tools for Arm Embedded Processors 7-2018-q2-update) 7.3.1 20180622 (release) [AR
ARM GAS  /var/folders/l3/4y5292px21b4835bsnjwqc7w009kq1/T//ccqMsXio.s 			page 9


DEFINED SYMBOLS
                            *ABS*:0000000000000000 main.cpp
/var/folders/l3/4y5292px21b4835bsnjwqc7w009kq1/T//ccqMsXio.s:14     .text._Z10Callback01PKv:0000000000000000 $t
/var/folders/l3/4y5292px21b4835bsnjwqc7w009kq1/T//ccqMsXio.s:21     .text._Z10Callback01PKv:0000000000000000 _Z10Callback01PKv
/var/folders/l3/4y5292px21b4835bsnjwqc7w009kq1/T//ccqMsXio.s:34     .text._Z10Callback01PKv:0000000000000008 $d
.ARM.exidx.text._Z10Callback01PKv:0000000000000000 $d
/var/folders/l3/4y5292px21b4835bsnjwqc7w009kq1/T//ccqMsXio.s:39     .text._ZL12MX_GPIO_Initv:0000000000000000 $t
/var/folders/l3/4y5292px21b4835bsnjwqc7w009kq1/T//ccqMsXio.s:45     .text._ZL12MX_GPIO_Initv:0000000000000000 _ZL12MX_GPIO_Initv
/var/folders/l3/4y5292px21b4835bsnjwqc7w009kq1/T//ccqMsXio.s:123    .text._ZL12MX_GPIO_Initv:00000000000000a4 $d
.ARM.exidx.text._ZL12MX_GPIO_Initv:0000000000000000 $d
/var/folders/l3/4y5292px21b4835bsnjwqc7w009kq1/T//ccqMsXio.s:130    .text._Z18task1EntryFunctionPKv:0000000000000000 $t
/var/folders/l3/4y5292px21b4835bsnjwqc7w009kq1/T//ccqMsXio.s:137    .text._Z18task1EntryFunctionPKv:0000000000000000 _Z18task1EntryFunctionPKv
/var/folders/l3/4y5292px21b4835bsnjwqc7w009kq1/T//ccqMsXio.s:163    .text._Z18task1EntryFunctionPKv:0000000000000028 $d
.ARM.extab.text._Z18task1EntryFunctionPKv:0000000000000000 $d
.ARM.exidx.text._Z18task1EntryFunctionPKv:0000000000000000 $d
/var/folders/l3/4y5292px21b4835bsnjwqc7w009kq1/T//ccqMsXio.s:169    .text._Z18task2EntryFunctionPKv:0000000000000000 $t
/var/folders/l3/4y5292px21b4835bsnjwqc7w009kq1/T//ccqMsXio.s:176    .text._Z18task2EntryFunctionPKv:0000000000000000 _Z18task2EntryFunctionPKv
/var/folders/l3/4y5292px21b4835bsnjwqc7w009kq1/T//ccqMsXio.s:204    .text._Z18task2EntryFunctionPKv:0000000000000030 $d
.ARM.extab.text._Z18task2EntryFunctionPKv:0000000000000000 $d
.ARM.exidx.text._Z18task2EntryFunctionPKv:0000000000000000 $d
/var/folders/l3/4y5292px21b4835bsnjwqc7w009kq1/T//ccqMsXio.s:209    .text._Z18SystemClock_Configv:0000000000000000 $t
/var/folders/l3/4y5292px21b4835bsnjwqc7w009kq1/T//ccqMsXio.s:216    .text._Z18SystemClock_Configv:0000000000000000 _Z18SystemClock_Configv
.ARM.exidx.text._Z18SystemClock_Configv:0000000000000000 $d
/var/folders/l3/4y5292px21b4835bsnjwqc7w009kq1/T//ccqMsXio.s:263    .text.main:0000000000000000 $t
/var/folders/l3/4y5292px21b4835bsnjwqc7w009kq1/T//ccqMsXio.s:270    .text.main:0000000000000000 main
/var/folders/l3/4y5292px21b4835bsnjwqc7w009kq1/T//ccqMsXio.s:319    .text.main:000000000000005c $d
             .ARM.exidx.text.main:0000000000000000 $d
/var/folders/l3/4y5292px21b4835bsnjwqc7w009kq1/T//ccqMsXio.s:327    .text.HAL_TIM_PeriodElapsedCallback:0000000000000000 $t
/var/folders/l3/4y5292px21b4835bsnjwqc7w009kq1/T//ccqMsXio.s:334    .text.HAL_TIM_PeriodElapsedCallback:0000000000000000 HAL_TIM_PeriodElapsedCallback
/var/folders/l3/4y5292px21b4835bsnjwqc7w009kq1/T//ccqMsXio.s:353    .text.HAL_TIM_PeriodElapsedCallback:0000000000000014 $d
.ARM.extab.text.HAL_TIM_PeriodElapsedCallback:0000000000000000 $d
.ARM.exidx.text.HAL_TIM_PeriodElapsedCallback:0000000000000000 $d
/var/folders/l3/4y5292px21b4835bsnjwqc7w009kq1/T//ccqMsXio.s:357    .text.Error_Handler:0000000000000000 $t
/var/folders/l3/4y5292px21b4835bsnjwqc7w009kq1/T//ccqMsXio.s:364    .text.Error_Handler:0000000000000000 Error_Handler
    .ARM.exidx.text.Error_Handler:0000000000000000 $d
/var/folders/l3/4y5292px21b4835bsnjwqc7w009kq1/T//ccqMsXio.s:421    .data.timerFlag:0000000000000000 timerFlag
/var/folders/l3/4y5292px21b4835bsnjwqc7w009kq1/T//ccqMsXio.s:400    .bss.myTimer01Handle:0000000000000000 myTimer01Handle
/var/folders/l3/4y5292px21b4835bsnjwqc7w009kq1/T//ccqMsXio.s:414    .bss.task2Handle:0000000000000000 task2Handle
/var/folders/l3/4y5292px21b4835bsnjwqc7w009kq1/T//ccqMsXio.s:407    .bss.task1Handle:0000000000000000 task1Handle
/var/folders/l3/4y5292px21b4835bsnjwqc7w009kq1/T//ccqMsXio.s:379    .rodata:0000000000000000 $d
/var/folders/l3/4y5292px21b4835bsnjwqc7w009kq1/T//ccqMsXio.s:396    .bss.myTimer01Handle:0000000000000000 $d
/var/folders/l3/4y5292px21b4835bsnjwqc7w009kq1/T//ccqMsXio.s:403    .bss.task1Handle:0000000000000000 $d
/var/folders/l3/4y5292px21b4835bsnjwqc7w009kq1/T//ccqMsXio.s:410    .bss.task2Handle:0000000000000000 $d
/var/folders/l3/4y5292px21b4835bsnjwqc7w009kq1/T//ccqMsXio.s:417    .data.timerFlag:0000000000000000 $d
/var/folders/l3/4y5292px21b4835bsnjwqc7w009kq1/T//ccqMsXio.s:424    .rodata.str1.4:0000000000000000 $d

UNDEFINED SYMBOLS
HAL_GPIO_WritePin
HAL_GPIO_Init
__aeabi_unwind_cpp_pr0
HAL_GPIO_TogglePin
osTimerStart
__aeabi_unwind_cpp_pr1
HAL_GPIO_ReadPin
osDelay
HAL_RCC_OscConfig
HAL_RCC_ClockConfig
ARM GAS  /var/folders/l3/4y5292px21b4835bsnjwqc7w009kq1/T//ccqMsXio.s 			page 10


HAL_Init
osTimerCreate
osThreadCreate
osKernelStart
HAL_IncTick
