ARM GAS  /var/folders/l3/4y5292px21b4835bsnjwqc7w009kq1/T//ccCxeMze.s 			page 1


   1              		.cpu cortex-m3
   2              		.eabi_attribute 20, 1
   3              		.eabi_attribute 21, 1
   4              		.eabi_attribute 23, 3
   5              		.eabi_attribute 24, 1
   6              		.eabi_attribute 25, 1
   7              		.eabi_attribute 26, 1
   8              		.eabi_attribute 30, 1
   9              		.eabi_attribute 34, 1
  10              		.eabi_attribute 18, 4
  11              		.file	"time.cpp"
  12              		.text
  13              		.section	.text._ZN3ros16normalizeSecNSecERmS0_,"ax",%progbits
  14              		.align	1
  15              		.global	_ZN3ros16normalizeSecNSecERmS0_
  16              		.syntax unified
  17              		.thumb
  18              		.thumb_func
  19              		.fpu softvfp
  21              	_ZN3ros16normalizeSecNSecERmS0_:
  22              		.fnstart
  23              	.LFB241:
  24              		@ args = 0, pretend = 0, frame = 0
  25              		@ frame_needed = 0, uses_anonymous_args = 0
  26              		@ link register save eliminated.
  27 0000 30B4     		push	{r4, r5}
  28 0002 0C68     		ldr	r4, [r1]
  29 0004 630A     		lsrs	r3, r4, #9
  30 0006 074A     		ldr	r2, .L3
  31 0008 A2FB0323 		umull	r2, r3, r2, r3
  32 000c DA09     		lsrs	r2, r3, #7
  33 000e 064D     		ldr	r5, .L3+4
  34 0010 05FB1242 		mls	r2, r5, r2, r4
  35 0014 0468     		ldr	r4, [r0]
  36 0016 04EBD313 		add	r3, r4, r3, lsr #7
  37 001a 0360     		str	r3, [r0]
  38 001c 0A60     		str	r2, [r1]
  39 001e 30BC     		pop	{r4, r5}
  40 0020 7047     		bx	lr
  41              	.L4:
  42 0022 00BF     		.align	2
  43              	.L3:
  44 0024 834B0400 		.word	281475
  45 0028 00CA9A3B 		.word	1000000000
  46              		.cantunwind
  47              		.fnend
  49              		.section	.text._ZN3ros4Time8fromNSecEl,"ax",%progbits
  50              		.align	1
  51              		.global	_ZN3ros4Time8fromNSecEl
  52              		.syntax unified
  53              		.thumb
  54              		.thumb_func
  55              		.fpu softvfp
  57              	_ZN3ros4Time8fromNSecEl:
  58              		.fnstart
  59              	.LFB242:
  60              		@ args = 0, pretend = 0, frame = 0
ARM GAS  /var/folders/l3/4y5292px21b4835bsnjwqc7w009kq1/T//ccCxeMze.s 			page 2


  61              		@ frame_needed = 0, uses_anonymous_args = 0
  62 0000 10B5     		push	{r4, lr}
  63 0002 0446     		mov	r4, r0
  64 0004 084A     		ldr	r2, .L7
  65 0006 82FB0132 		smull	r3, r2, r2, r1
  66 000a CB17     		asrs	r3, r1, #31
  67 000c C3EB2273 		rsb	r3, r3, r2, asr #28
  68 0010 0360     		str	r3, [r0]
  69 0012 064A     		ldr	r2, .L7+4
  70 0014 02FB1312 		mls	r2, r2, r3, r1
  71 0018 0146     		mov	r1, r0
  72 001a 41F8042F 		str	r2, [r1, #4]!
  73 001e FFF7FEFF 		bl	_ZN3ros16normalizeSecNSecERmS0_
  74 0022 2046     		mov	r0, r4
  75 0024 10BD     		pop	{r4, pc}
  76              	.L8:
  77 0026 00BF     		.align	2
  78              	.L7:
  79 0028 A12FB844 		.word	1152921505
  80 002c 00CA9A3B 		.word	1000000000
  81              		.cantunwind
  82              		.fnend
  84              		.section	.text._ZN3ros4TimepLERKNS_8DurationE,"ax",%progbits
  85              		.align	1
  86              		.global	_ZN3ros4TimepLERKNS_8DurationE
  87              		.syntax unified
  88              		.thumb
  89              		.thumb_func
  90              		.fpu softvfp
  92              	_ZN3ros4TimepLERKNS_8DurationE:
  93              		.fnstart
  94              	.LFB243:
  95              		@ args = 0, pretend = 0, frame = 0
  96              		@ frame_needed = 0, uses_anonymous_args = 0
  97 0000 10B5     		push	{r4, lr}
  98 0002 0446     		mov	r4, r0
  99 0004 0A68     		ldr	r2, [r1]
 100 0006 0368     		ldr	r3, [r0]
 101 0008 1344     		add	r3, r3, r2
 102 000a 0360     		str	r3, [r0]
 103 000c 4A68     		ldr	r2, [r1, #4]
 104 000e 4368     		ldr	r3, [r0, #4]
 105 0010 1344     		add	r3, r3, r2
 106 0012 0146     		mov	r1, r0
 107 0014 41F8043F 		str	r3, [r1, #4]!
 108 0018 FFF7FEFF 		bl	_ZN3ros16normalizeSecNSecERmS0_
 109 001c 2046     		mov	r0, r4
 110 001e 10BD     		pop	{r4, pc}
 111              		.cantunwind
 112              		.fnend
 114              		.section	.text._ZN3ros4TimemIERKNS_8DurationE,"ax",%progbits
 115              		.align	1
 116              		.global	_ZN3ros4TimemIERKNS_8DurationE
 117              		.syntax unified
 118              		.thumb
 119              		.thumb_func
 120              		.fpu softvfp
ARM GAS  /var/folders/l3/4y5292px21b4835bsnjwqc7w009kq1/T//ccCxeMze.s 			page 3


 122              	_ZN3ros4TimemIERKNS_8DurationE:
 123              		.fnstart
 124              	.LFB244:
 125              		@ args = 0, pretend = 0, frame = 0
 126              		@ frame_needed = 0, uses_anonymous_args = 0
 127 0000 10B5     		push	{r4, lr}
 128 0002 0446     		mov	r4, r0
 129 0004 0A68     		ldr	r2, [r1]
 130 0006 0368     		ldr	r3, [r0]
 131 0008 9B1A     		subs	r3, r3, r2
 132 000a 0360     		str	r3, [r0]
 133 000c 4A68     		ldr	r2, [r1, #4]
 134 000e 4368     		ldr	r3, [r0, #4]
 135 0010 9B1A     		subs	r3, r3, r2
 136 0012 0146     		mov	r1, r0
 137 0014 41F8043F 		str	r3, [r1, #4]!
 138 0018 FFF7FEFF 		bl	_ZN3ros16normalizeSecNSecERmS0_
 139 001c 2046     		mov	r0, r4
 140 001e 10BD     		pop	{r4, pc}
 141              		.cantunwind
 142              		.fnend
 144              		.ident	"GCC: (GNU Tools for Arm Embedded Processors 7-2018-q2-update) 7.3.1 20180622 (release) [AR
ARM GAS  /var/folders/l3/4y5292px21b4835bsnjwqc7w009kq1/T//ccCxeMze.s 			page 4


DEFINED SYMBOLS
                            *ABS*:0000000000000000 time.cpp
/var/folders/l3/4y5292px21b4835bsnjwqc7w009kq1/T//ccCxeMze.s:14     .text._ZN3ros16normalizeSecNSecERmS0_:0000000000000000 $t
/var/folders/l3/4y5292px21b4835bsnjwqc7w009kq1/T//ccCxeMze.s:21     .text._ZN3ros16normalizeSecNSecERmS0_:0000000000000000 _ZN3ros16normalizeSecNSecERmS0_
/var/folders/l3/4y5292px21b4835bsnjwqc7w009kq1/T//ccCxeMze.s:44     .text._ZN3ros16normalizeSecNSecERmS0_:0000000000000024 $d
.ARM.exidx.text._ZN3ros16normalizeSecNSecERmS0_:0000000000000000 $d
/var/folders/l3/4y5292px21b4835bsnjwqc7w009kq1/T//ccCxeMze.s:50     .text._ZN3ros4Time8fromNSecEl:0000000000000000 $t
/var/folders/l3/4y5292px21b4835bsnjwqc7w009kq1/T//ccCxeMze.s:57     .text._ZN3ros4Time8fromNSecEl:0000000000000000 _ZN3ros4Time8fromNSecEl
/var/folders/l3/4y5292px21b4835bsnjwqc7w009kq1/T//ccCxeMze.s:79     .text._ZN3ros4Time8fromNSecEl:0000000000000028 $d
.ARM.exidx.text._ZN3ros4Time8fromNSecEl:0000000000000000 $d
/var/folders/l3/4y5292px21b4835bsnjwqc7w009kq1/T//ccCxeMze.s:85     .text._ZN3ros4TimepLERKNS_8DurationE:0000000000000000 $t
/var/folders/l3/4y5292px21b4835bsnjwqc7w009kq1/T//ccCxeMze.s:92     .text._ZN3ros4TimepLERKNS_8DurationE:0000000000000000 _ZN3ros4TimepLERKNS_8DurationE
.ARM.exidx.text._ZN3ros4TimepLERKNS_8DurationE:0000000000000000 $d
/var/folders/l3/4y5292px21b4835bsnjwqc7w009kq1/T//ccCxeMze.s:115    .text._ZN3ros4TimemIERKNS_8DurationE:0000000000000000 $t
/var/folders/l3/4y5292px21b4835bsnjwqc7w009kq1/T//ccCxeMze.s:122    .text._ZN3ros4TimemIERKNS_8DurationE:0000000000000000 _ZN3ros4TimemIERKNS_8DurationE
.ARM.exidx.text._ZN3ros4TimemIERKNS_8DurationE:0000000000000000 $d

NO UNDEFINED SYMBOLS
